target datalayout = "e-m:e-p270:32:32-p271:32:32-p272:64:64-i64:64-i128:128-f80:128-n8:16:32:64-S128"
target triple = "x86_64-pc-linux-gnu"

%"class.QtPrivate::RefCount" = type { %class.QBasicAtomicInteger }
%class.QBasicAtomicInteger = type { %"struct.std::atomic" }
%"struct.std::atomic" = type { %"struct.std::__atomic_base" }
%"struct.std::__atomic_base" = type { i32 }
%struct.QArrayData = type { %"class.QtPrivate::RefCount", i32, i32, i64 }
%class.QString = type { ptr }
%class.QObject = type { ptr, %class.QScopedPointer }
%class.QScopedPointer = type { ptr }
%class.QualityMapperDialog = type { %class.QDockWidget, %"class.Ui::QualityMapperDialogClass", ptr, ptr, %class.QGraphicsScene, [3 x ptr], double, i8, i8, %class.QList, i32, ptr, ptr, ptr, %class.QGraphicsScene, ptr, [3 x %class.QList.22], ptr, %class.QString, %class.QList, %class.QList, i8, %class.QList.25, %class.QList, ptr, ptr }
%class.QDockWidget = type { %class.QWidget }
%class.QWidget = type { %class.QObject, %class.QPaintDevice, ptr }
%class.QPaintDevice = type { ptr, i16, ptr }
%"class.Ui::QualityMapperDialogClass" = type { %class.Ui_QualityMapperDialogClass }
%class.Ui_QualityMapperDialogClass = type { ptr, ptr, ptr, ptr, ptr, ptr, ptr, ptr, ptr, ptr, ptr, ptr, ptr, ptr, ptr, ptr, ptr, ptr, ptr, ptr, ptr, ptr, ptr, ptr, ptr, ptr, ptr, ptr, ptr, ptr, ptr, ptr, ptr, ptr, ptr, ptr, ptr, ptr, ptr, ptr, ptr, ptr, ptr, ptr, ptr, ptr, ptr, ptr, ptr, ptr, ptr, ptr, ptr, ptr, ptr, ptr, ptr, ptr, ptr, ptr, ptr, ptr, ptr, ptr, ptr, ptr, ptr, ptr }
%class.QGraphicsScene = type { %class.QObject }
%class.QList.22 = type { %union.anon.24 }
%union.anon.24 = type { %struct.QListData }
%struct.QListData = type { ptr }
%class.QList.25 = type { %union.anon.27 }
%union.anon.27 = type { %struct.QListData }
%class.QList = type { %union.anon }
%union.anon = type { %struct.QListData }
%"class.std::__cxx11::basic_string" = type { %"struct.std::__cxx11::basic_string<char>::_Alloc_hider", i64, %union.anon.203 }
%"struct.std::__cxx11::basic_string<char>::_Alloc_hider" = type { ptr }
%union.anon.203 = type { i64, [8 x i8] }
%class.QChar = type { i16 }

; Function Attrs: mustprogress nounwind uwtable
define linkonce_odr void @_ZN5QCharC2Ei(ptr noundef nonnull align 2 dereferenceable(2) %0, i32 noundef %1) unnamed_addr #4 comdat align 2 {
  %3 = alloca ptr, align 8
  %4 = alloca i32, align 4
  store ptr %0, ptr %3, align 8
  store i32 %1, ptr %4, align 4
  %5 = load ptr, ptr %3, align 8
  %6 = getelementptr inbounds %class.QChar, ptr %5, i32 0, i32 0
  %7 = load i32, ptr %4, align 4
  %8 = and i32 %7, 65535
  %9 = trunc i32 %8 to i16
  store i16 %9, ptr %6, align 2
  ret void
}

; Function Attrs: mustprogress nounwind uwtable
define linkonce_odr noundef i32 @_ZNK7QString4sizeEv(ptr noundef nonnull align 8 dereferenceable(8) %0) #4 comdat align 2 {
  %2 = alloca ptr, align 8
  store ptr %0, ptr %2, align 8
  %3 = load ptr, ptr %2, align 8
  %4 = getelementptr inbounds %class.QString, ptr %3, i32 0, i32 0
  %5 = load ptr, ptr %4, align 8
  %6 = getelementptr inbounds %struct.QArrayData, ptr %5, i32 0, i32 1
  %7 = load i32, ptr %6, align 4
  ret i32 %7
}

; Function Attrs: mustprogress uwtable
define linkonce_odr noundef nonnull align 8 dereferenceable(8) ptr @_ZN7QString6setNumEfci(ptr noundef nonnull align 8 dereferenceable(8) %0, float noundef %1, i8 noundef signext %2, i32 noundef %3) #5 comdat align 2 {
  %5 = alloca ptr, align 8
  %6 = alloca float, align 4
  %7 = alloca i8, align 1
  %8 = alloca i32, align 4
  store ptr %0, ptr %5, align 8
  store float %1, ptr %6, align 4
  store i8 %2, ptr %7, align 1
  store i32 %3, ptr %8, align 4
  %9 = load ptr, ptr %5, align 8
  %10 = load float, ptr %6, align 4
  %11 = fpext float %10 to double
  %12 = load i8, ptr %7, align 1
  %13 = load i32, ptr %8, align 4
  %14 = call noundef nonnull align 8 dereferenceable(8) ptr @_ZN7QString6setNumEdci(ptr noundef nonnull align 8 dereferenceable(8) %9, double noundef %11, i8 noundef signext %12, i32 noundef %13)
  ret ptr %14
}

; Function Attrs: mustprogress nounwind uwtable
define linkonce_odr noundef float @_ZSt5log10f(float noundef %0) #4 comdat {
  %2 = alloca float, align 4
  store float %0, ptr %2, align 4
  %3 = load float, ptr %2, align 4
  %4 = call float @log10f(float noundef %3) #3
  ret float %4
}

; Function Attrs: mustprogress uwtable
define void @_ZN19QualityMapperDialog19updateXQualityLabelEf(ptr noundef nonnull align 8 dereferenceable(824) %0, float noundef %1) #5 align 2 personality ptr @__gxx_personality_v0 {
  %3 = alloca ptr, align 8
  %4 = alloca float, align 4
  %5 = alloca float, align 4
  %6 = alloca %"class.std::__cxx11::basic_string", align 8
  %7 = alloca ptr, align 8
  %8 = alloca i32, align 4
  %9 = alloca [6 x %class.QChar], align 2
  %10 = alloca %class.QChar, align 2
  %11 = alloca %class.QChar, align 2
  store ptr %0, ptr %3, align 8
  store float %1, ptr %4, align 4
  %12 = load ptr, ptr %3, align 8
  %13 = getelementptr inbounds %class.QualityMapperDialog, ptr %12, i32 0, i32 6
  %14 = load double, ptr %13, align 8
  %15 = fptrunc double %14 to float
  %16 = call noundef float @_ZSt5log10f(float noundef %15)
  %17 = call noundef float @_ZSt5log10f(float noundef 5.000000e-01)
  %18 = fdiv float %16, %17
  store float %18, ptr %5, align 4
  call void @_ZNSt7__cxx1112basic_stringIcSt11char_traitsIcESaIcEEC1Ev(ptr noundef nonnull align 8 dereferenceable(32) %6) #3
  %19 = getelementptr inbounds %class.QualityMapperDialog, ptr %12, i32 0, i32 18
  %20 = load float, ptr %4, align 4
  %21 = getelementptr inbounds %class.QualityMapperDialog, ptr %12, i32 0, i32 1
  %22 = getelementptr inbounds %class.Ui_QualityMapperDialogClass, ptr %21, i32 0, i32 38
  %23 = load ptr, ptr %22, align 8
  %24 = invoke noundef double @_ZNK14QDoubleSpinBox5valueEv(ptr noundef nonnull align 8 dereferenceable(48) %23)
          to label %25 unwind label %60

25:                                               ; preds = %2
  %26 = fptrunc double %24 to float
  %27 = getelementptr inbounds %class.QualityMapperDialog, ptr %12, i32 0, i32 1
  %28 = getelementptr inbounds %class.Ui_QualityMapperDialogClass, ptr %27, i32 0, i32 46
  %29 = load ptr, ptr %28, align 8
  %30 = invoke noundef double @_ZNK14QDoubleSpinBox5valueEv(ptr noundef nonnull align 8 dereferenceable(48) %29)
          to label %31 unwind label %60

31:                                               ; preds = %25
  %32 = fptrunc double %30 to float
  %33 = load float, ptr %5, align 4
  %34 = invoke noundef float @_Z20relative2QualityValfffff(float noundef %20, float noundef %26, float noundef %32, float noundef %33)
          to label %35 unwind label %60

35:                                               ; preds = %31
  %36 = invoke noundef nonnull align 8 dereferenceable(8) ptr @_ZN7QString6setNumEfci(ptr noundef nonnull align 8 dereferenceable(8) %19, float noundef %34, i8 noundef signext 103, i32 noundef 6)
          to label %37 unwind label %60

37:                                               ; preds = %35
  %38 = getelementptr inbounds %class.QualityMapperDialog, ptr %12, i32 0, i32 18
  %39 = call noundef i32 @_ZNK7QString4sizeEv(ptr noundef nonnull align 8 dereferenceable(8) %38)
  %40 = icmp slt i32 %39, 8
  br i1 %40, label %41, label %80

41:                                               ; preds = %37
  %42 = getelementptr inbounds [6 x %class.QChar], ptr %9, i64 0, i64 0
  call void @_ZN5QCharC2Ei(ptr noundef nonnull align 2 dereferenceable(2) %42, i32 noundef 48) #3
  %43 = getelementptr inbounds %class.QChar, ptr %42, i64 1
  call void @_ZN5QCharC2Ei(ptr noundef nonnull align 2 dereferenceable(2) %43, i32 noundef 48) #3
  %44 = getelementptr inbounds %class.QChar, ptr %43, i64 1
  call void @_ZN5QCharC2Ei(ptr noundef nonnull align 2 dereferenceable(2) %44, i32 noundef 48) #3
  %45 = getelementptr inbounds %class.QChar, ptr %44, i64 1
  call void @_ZN5QCharC2Ei(ptr noundef nonnull align 2 dereferenceable(2) %45, i32 noundef 48) #3
  %46 = getelementptr inbounds %class.QChar, ptr %45, i64 1
  call void @_ZN5QCharC2Ei(ptr noundef nonnull align 2 dereferenceable(2) %46, i32 noundef 48) #3
  %47 = getelementptr inbounds %class.QChar, ptr %46, i64 1
  call void @_ZN5QCharC2Ei(ptr noundef nonnull align 2 dereferenceable(2) %47, i32 noundef 48) #3
  %48 = getelementptr inbounds %class.QualityMapperDialog, ptr %12, i32 0, i32 18
  call void @_ZN5QCharC2Ei(ptr noundef nonnull align 2 dereferenceable(2) %10, i32 noundef 46) #3
  %49 = getelementptr inbounds %class.QChar, ptr %10, i32 0, i32 0
  %50 = load i16, ptr %49, align 2
  %51 = invoke noundef i32 @_ZNK7QString7indexOfE5QChariN2Qt15CaseSensitivityE(ptr noundef nonnull align 8 dereferenceable(8) %48, i16 %50, i32 noundef 0, i32 noundef 1)
          to label %52 unwind label %60

52:                                               ; preds = %41
  %53 = icmp eq i32 %51, -1
  br i1 %53, label %54, label %64

54:                                               ; preds = %52
  %55 = getelementptr inbounds %class.QualityMapperDialog, ptr %12, i32 0, i32 18
  call void @_ZN5QCharC2Ei(ptr noundef nonnull align 2 dereferenceable(2) %11, i32 noundef 46) #3
  %56 = getelementptr inbounds %class.QChar, ptr %11, i32 0, i32 0
  %57 = load i16, ptr %56, align 2
  %58 = invoke noundef nonnull align 8 dereferenceable(8) ptr @_ZN7QString6appendE5QChar(ptr noundef nonnull align 8 dereferenceable(8) %55, i16 %57)
          to label %59 unwind label %60

59:                                               ; preds = %54
  br label %64

60:                                               ; preds = %80, %69, %54, %41, %35, %31, %25, %2
  %61 = landingpad { ptr, i32 }
          cleanup
  %62 = extractvalue { ptr, i32 } %61, 0
  store ptr %62, ptr %7, align 8
  %63 = extractvalue { ptr, i32 } %61, 1
  store i32 %63, ptr %8, align 4
  call void @_ZNSt7__cxx1112basic_stringIcSt11char_traitsIcESaIcEED1Ev(ptr noundef nonnull align 8 dereferenceable(32) %6) #3
  br label %86

64:                                               ; preds = %59, %52
  %65 = getelementptr inbounds %class.QualityMapperDialog, ptr %12, i32 0, i32 18
  %66 = call noundef i32 @_ZNK7QString4sizeEv(ptr noundef nonnull align 8 dereferenceable(8) %65)
  %67 = sub nsw i32 8, %66
  %68 = icmp sgt i32 %67, 0
  br i1 %68, label %69, label %79

69:                                               ; preds = %64
  %70 = getelementptr inbounds %class.QualityMapperDialog, ptr %12, i32 0, i32 18
  %71 = getelementptr inbounds %class.QualityMapperDialog, ptr %12, i32 0, i32 18
  %72 = call noundef i32 @_ZNK7QString4sizeEv(ptr noundef nonnull align 8 dereferenceable(8) %71)
  %73 = getelementptr inbounds [6 x %class.QChar], ptr %9, i64 0, i64 0
  %74 = getelementptr inbounds %class.QualityMapperDialog, ptr %12, i32 0, i32 18
  %75 = call noundef i32 @_ZNK7QString4sizeEv(ptr noundef nonnull align 8 dereferenceable(8) %74)
  %76 = sub nsw i32 8, %75
  %77 = invoke noundef nonnull align 8 dereferenceable(8) ptr @_ZN7QString6insertEiPK5QChari(ptr noundef nonnull align 8 dereferenceable(8) %70, i32 noundef %72, ptr noundef %73, i32 noundef %76)
          to label %78 unwind label %60

78:                                               ; preds = %69
  br label %79

79:                                               ; preds = %78, %64
  br label %80

80:                                               ; preds = %79, %37
  %81 = getelementptr inbounds %class.QualityMapperDialog, ptr %12, i32 0, i32 1
  %82 = getelementptr inbounds %class.Ui_QualityMapperDialogClass, ptr %81, i32 0, i32 24
  %83 = load ptr, ptr %82, align 8
  %84 = getelementptr inbounds %class.QualityMapperDialog, ptr %12, i32 0, i32 18
  invoke void @_ZN6QLabel7setTextERK7QString(ptr noundef nonnull align 8 dereferenceable(48) %83, ptr noundef nonnull align 8 dereferenceable(8) %84)
          to label %85 unwind label %60

85:                                               ; preds = %80
  call void @_ZNSt7__cxx1112basic_stringIcSt11char_traitsIcESaIcEED1Ev(ptr noundef nonnull align 8 dereferenceable(32) %6) #3
  ret void

86:                                               ; preds = %60
  %87 = load ptr, ptr %7, align 8
  %88 = load i32, ptr %8, align 4
  %89 = insertvalue { ptr, i32 } poison, ptr %87, 0
  %90 = insertvalue { ptr, i32 } %89, i32 %88, 1
  resume { ptr, i32 } %90
}