; Function Attrs: mustprogress uwtable
define void @_ZN19QualityMapperDialog19updateXQualityLabelEf(ptr noundef nonnull align 8 dereferenceable(824) %0, float noundef %1) local_unnamed_addr #9 align 2 personality ptr @__gxx_personality_v0 {
  %3 = alloca %"class.std::__cxx11::basic_string", align 8
  %4 = alloca [6 x %class.QChar], align 8
  %5 = getelementptr inbounds i8, ptr %0, i64 648
  %6 = load double, ptr %5, align 8
  %7 = fptrunc double %6 to float
  %8 = tail call noundef float @log10f(float noundef %7) #23
  %9 = fdiv float %8, 0xBFD3441360000000
  call void @_ZNSt7__cxx1112basic_stringIcSt11char_traitsIcESaIcEEC1Ev(ptr noundef nonnull align 8 dereferenceable(32) %3) #23
  %10 = getelementptr inbounds i8, ptr %0, i64 760
  %11 = getelementptr inbounds i8, ptr %0, i64 352
  %12 = load ptr, ptr %11, align 8
  %13 = invoke noundef double @_ZNK14QDoubleSpinBox5valueEv(ptr noundef nonnull align 8 dereferenceable(48) %12)
          to label %14 unwind label %37

14:                                               ; preds = %2
  %15 = getelementptr inbounds i8, ptr %0, i64 416
  %16 = load ptr, ptr %15, align 8
  %17 = invoke noundef double @_ZNK14QDoubleSpinBox5valueEv(ptr noundef nonnull align 8 dereferenceable(48) %16)
          to label %18 unwind label %37

18:                                               ; preds = %14
  %19 = fptrunc double %13 to float
  %20 = fptrunc double %17 to float
  %21 = invoke noundef float @_Z20relative2QualityValfffff(float noundef %1, float noundef %19, float noundef %20, float noundef %9)
          to label %22 unwind label %37

22:                                               ; preds = %18
  %23 = fpext float %21 to double
  %24 = invoke noundef nonnull align 8 dereferenceable(8) ptr @_ZN7QString6setNumEdci(ptr noundef nonnull align 8 dereferenceable(8) %10, double noundef %23, i8 noundef signext 103, i32 noundef 6)
          to label %_ZN7QString6setNumEfci.exit unwind label %37

_ZN7QString6setNumEfci.exit:                      ; preds = %22
  %25 = load ptr, ptr %10, align 8
  %26 = getelementptr inbounds i8, ptr %25, i64 4
  %27 = load i32, ptr %26, align 4
  %28 = icmp slt i32 %27, 8
  br i1 %28, label %29, label %47

29:                                               ; preds = %_ZN7QString6setNumEfci.exit
  store <4 x i16> <i16 48, i16 48, i16 48, i16 48>, ptr %4, align 8
  %30 = getelementptr inbounds i8, ptr %4, i64 8
  store i16 48, ptr %30, align 8
  %31 = getelementptr inbounds i8, ptr %4, i64 10
  store i16 48, ptr %31, align 2
  %32 = invoke noundef i32 @_ZNK7QString7indexOfE5QChariN2Qt15CaseSensitivityE(ptr noundef nonnull align 8 dereferenceable(8) %10, i16 46, i32 noundef 0, i32 noundef 1)
          to label %33 unwind label %37

33:                                               ; preds = %29
  %34 = icmp eq i32 %32, -1
  br i1 %34, label %35, label %39

35:                                               ; preds = %33
  %36 = invoke noundef nonnull align 8 dereferenceable(8) ptr @_ZN7QString6appendE5QChar(ptr noundef nonnull align 8 dereferenceable(8) %10, i16 46)
          to label %39 unwind label %37

37:                                               ; preds = %22, %47, %44, %35, %29, %18, %14, %2
  %38 = landingpad { ptr, i32 }
          cleanup
  call void @_ZNSt7__cxx1112basic_stringIcSt11char_traitsIcESaIcEED1Ev(ptr noundef nonnull align 8 dereferenceable(32) %3) #23
  resume { ptr, i32 } %38

39:                                               ; preds = %35, %33
  %40 = load ptr, ptr %10, align 8
  %41 = getelementptr inbounds i8, ptr %40, i64 4
  %42 = load i32, ptr %41, align 4
  %43 = icmp slt i32 %42, 8
  br i1 %43, label %44, label %47

44:                                               ; preds = %39
  %45 = sub nsw i32 8, %42
  %46 = invoke noundef nonnull align 8 dereferenceable(8) ptr @_ZN7QString6insertEiPK5QChari(ptr noundef nonnull align 8 dereferenceable(8) %10, i32 noundef %42, ptr noundef nonnull %4, i32 noundef %45)
          to label %47 unwind label %37

47:                                               ; preds = %39, %44, %_ZN7QString6setNumEfci.exit
  %48 = getelementptr inbounds i8, ptr %0, i64 240
  %49 = load ptr, ptr %48, align 8
  invoke void @_ZN6QLabel7setTextERK7QString(ptr noundef nonnull align 8 dereferenceable(48) %49, ptr noundef nonnull align 8 dereferenceable(8) %10)
          to label %50 unwind label %37

50:                                               ; preds = %47
  call void @_ZNSt7__cxx1112basic_stringIcSt11char_traitsIcESaIcEED1Ev(ptr noundef nonnull align 8 dereferenceable(32) %3) #23
  ret void
}